target datalayout = "e-m:e-p270:32:32-p271:32:32-p272:64:64-i64:64-i128:128-f80:128-n8:16:32:64-S128"
target triple = "x86_64-pc-linux-gnu"

%struct.evp_pkey_asn1_method_st = type { i32, i32, i64, ptr, ptr, ptr, ptr, ptr, ptr, ptr, ptr, ptr, ptr, ptr, ptr, ptr, ptr, ptr, ptr, ptr, ptr, ptr, ptr, ptr, ptr, ptr, ptr, ptr, ptr, ptr, ptr, ptr, ptr, ptr, ptr, ptr, ptr, ptr, ptr, ptr, ptr }
%struct.evp_pkey_st = type { i32, i32, ptr, ptr, ptr, %union.legacy_pkey_st, %union.legacy_pkey_st, %struct.CRYPTO_REF_COUNT, ptr, ptr, i32, i8, %struct.crypto_ex_data_st, ptr, ptr, i64, ptr, i64, %struct.anon }
%union.legacy_pkey_st = type { ptr }
%struct.CRYPTO_REF_COUNT = type { i32 }
%struct.crypto_ex_data_st = type { ptr, ptr }
%struct.anon = type { i32, i32, i32 }
%struct.ecx_key_st = type { ptr, ptr, i8, [57 x i8], ptr, i64, i32, %struct.CRYPTO_REF_COUNT }

@.str.8 = private unnamed_addr constant [32 x i8] c"../openssl/crypto/ec/ecx_meth.c\00", align 1
@__func__.ecx_pub_encode = private unnamed_addr constant [15 x i8] c"ecx_pub_encode\00", align 1

; Function Attrs: nounwind uwtable
define internal i32 @ecx_pub_encode(ptr noundef %0, ptr noundef %1) #0 {
  %3 = alloca i32, align 4
  %4 = alloca ptr, align 8
  %5 = alloca ptr, align 8
  %6 = alloca ptr, align 8
  %7 = alloca ptr, align 8
  %8 = alloca i32, align 4
  store ptr %0, ptr %4, align 8, !tbaa !8
  store ptr %1, ptr %5, align 8, !tbaa !3
  call void @llvm.lifetime.start.p0(i64 8, ptr %6) #4
  %9 = load ptr, ptr %5, align 8, !tbaa !3
  %10 = getelementptr inbounds nuw %struct.evp_pkey_st, ptr %9, i32 0, i32 5
  %11 = load ptr, ptr %10, align 8, !tbaa !33
  store ptr %11, ptr %6, align 8, !tbaa !31
  call void @llvm.lifetime.start.p0(i64 8, ptr %7) #4
  %12 = load ptr, ptr %6, align 8, !tbaa !31
  %13 = icmp eq ptr %12, null
  br i1 %13, label %14, label %15

14:                                               ; preds = %2
  call void @ERR_new()
  call void @ERR_set_debug(ptr noundef @.str.8, i32 noundef 37, ptr noundef @__func__.ecx_pub_encode)
  call void (i32, i32, ptr, ...) @ERR_set_error(i32 noundef 16, i32 noundef 116, ptr noundef null)
  store i32 0, ptr %3, align 4
  store i32 1, ptr %8, align 4
  br label %86

15:                                               ; preds = %2
  %16 = load ptr, ptr %6, align 8, !tbaa !31
  %17 = getelementptr inbounds nuw %struct.ecx_key_st, ptr %16, i32 0, i32 3
  %18 = getelementptr inbounds [57 x i8], ptr %17, i64 0, i64 0
  %19 = load ptr, ptr %5, align 8, !tbaa !3
  %20 = getelementptr inbounds nuw %struct.evp_pkey_st, ptr %19, i32 0, i32 2
  %21 = load ptr, ptr %20, align 8, !tbaa !16
  %22 = getelementptr inbounds nuw %struct.evp_pkey_asn1_method_st, ptr %21, i32 0, i32 0
  %23 = load i32, ptr %22, align 8, !tbaa !29
  %24 = icmp eq i32 %23, 1034
  br i1 %24, label %32, label %25

25:                                               ; preds = %15
  %26 = load ptr, ptr %5, align 8, !tbaa !3
  %27 = getelementptr inbounds nuw %struct.evp_pkey_st, ptr %26, i32 0, i32 2
  %28 = load ptr, ptr %27, align 8, !tbaa !16
  %29 = getelementptr inbounds nuw %struct.evp_pkey_asn1_method_st, ptr %28, i32 0, i32 0
  %30 = load i32, ptr %29, align 8, !tbaa !29
  %31 = icmp eq i32 %30, 1087
  br i1 %31, label %32, label %33

32:                                               ; preds = %25, %15
  br label %41

33:                                               ; preds = %25
  %34 = load ptr, ptr %5, align 8, !tbaa !3
  %35 = getelementptr inbounds nuw %struct.evp_pkey_st, ptr %34, i32 0, i32 2
  %36 = load ptr, ptr %35, align 8, !tbaa !16
  %37 = getelementptr inbounds nuw %struct.evp_pkey_asn1_method_st, ptr %36, i32 0, i32 0
  %38 = load i32, ptr %37, align 8, !tbaa !29
  %39 = icmp eq i32 %38, 1035
  %40 = select i1 %39, i32 56, i32 57
  br label %41

41:                                               ; preds = %33, %32
  %42 = phi i32 [ 32, %32 ], [ %40, %33 ]
  %43 = sext i32 %42 to i64
  %44 = call noalias ptr @CRYPTO_memdup(ptr noundef %18, i64 noundef %43, ptr noundef @.str.8, i32 noundef 41)
  store ptr %44, ptr %7, align 8, !tbaa !14
  %45 = load ptr, ptr %7, align 8, !tbaa !14
  %46 = icmp eq ptr %45, null
  br i1 %46, label %47, label %48

47:                                               ; preds = %41
  store i32 0, ptr %3, align 4
  store i32 1, ptr %8, align 4
  br label %86

48:                                               ; preds = %41
  %49 = load ptr, ptr %4, align 8, !tbaa !8
  %50 = load ptr, ptr %5, align 8, !tbaa !3
  %51 = getelementptr inbounds nuw %struct.evp_pkey_st, ptr %50, i32 0, i32 2
  %52 = load ptr, ptr %51, align 8, !tbaa !16
  %53 = getelementptr inbounds nuw %struct.evp_pkey_asn1_method_st, ptr %52, i32 0, i32 0
  %54 = load i32, ptr %53, align 8, !tbaa !29
  %55 = call ptr @OBJ_nid2obj(i32 noundef %54)
  %56 = load ptr, ptr %7, align 8, !tbaa !14
  %57 = load ptr, ptr %5, align 8, !tbaa !3
  %58 = getelementptr inbounds nuw %struct.evp_pkey_st, ptr %57, i32 0, i32 2
  %59 = load ptr, ptr %58, align 8, !tbaa !16
  %60 = getelementptr inbounds nuw %struct.evp_pkey_asn1_method_st, ptr %59, i32 0, i32 0
  %61 = load i32, ptr %60, align 8, !tbaa !29
  %62 = icmp eq i32 %61, 1034
  br i1 %62, label %70, label %63

63:                                               ; preds = %48
  %64 = load ptr, ptr %5, align 8, !tbaa !3
  %65 = getelementptr inbounds nuw %struct.evp_pkey_st, ptr %64, i32 0, i32 2
  %66 = load ptr, ptr %65, align 8, !tbaa !16
  %67 = getelementptr inbounds nuw %struct.evp_pkey_asn1_method_st, ptr %66, i32 0, i32 0
  %68 = load i32, ptr %67, align 8, !tbaa !29
  %69 = icmp eq i32 %68, 1087
  br i1 %69, label %70, label %71

70:                                               ; preds = %63, %48
  br label %79

71:                                               ; preds = %63
  %72 = load ptr, ptr %5, align 8, !tbaa !3
  %73 = getelementptr inbounds nuw %struct.evp_pkey_st, ptr %72, i32 0, i32 2
  %74 = load ptr, ptr %73, align 8, !tbaa !16
  %75 = getelementptr inbounds nuw %struct.evp_pkey_asn1_method_st, ptr %74, i32 0, i32 0
  %76 = load i32, ptr %75, align 8, !tbaa !29
  %77 = icmp eq i32 %76, 1035
  %78 = select i1 %77, i32 56, i32 57
  br label %79

79:                                               ; preds = %71, %70
  %80 = phi i32 [ 32, %70 ], [ %78, %71 ]
  %81 = call i32 @X509_PUBKEY_set0_param(ptr noundef %49, ptr noundef %55, i32 noundef -1, ptr noundef null, ptr noundef %56, i32 noundef %80)
  %82 = icmp ne i32 %81, 0
  br i1 %82, label %85, label %83

83:                                               ; preds = %79
  %84 = load ptr, ptr %7, align 8, !tbaa !14
  call void @CRYPTO_free(ptr noundef %84, ptr noundef @.str.8, i32 noundef 47)
  call void @ERR_new()
  call void @ERR_set_debug(ptr noundef @.str.8, i32 noundef 48, ptr noundef @__func__.ecx_pub_encode)
  call void (i32, i32, ptr, ...) @ERR_set_error(i32 noundef 16, i32 noundef 524299, ptr noundef null)
  store i32 0, ptr %3, align 4
  store i32 1, ptr %8, align 4
  br label %86

85:                                               ; preds = %79
  store i32 1, ptr %3, align 4
  store i32 1, ptr %8, align 4
  br label %86

86:                                               ; preds = %85, %83, %47, %14
  call void @llvm.lifetime.end.p0(i64 8, ptr %7) #4
  call void @llvm.lifetime.end.p0(i64 8, ptr %6) #4
  %87 = load i32, ptr %3, align 4
  ret i32 %87
}