; Function Attrs: nounwind uwtable
define internal range(i32 0, 2) i32 @ecx_pub_encode(ptr noundef %0, ptr noundef readonly captures(none) %1) #0 {
  %3 = getelementptr inbounds nuw i8, ptr %1, i64 32
  %4 = load ptr, ptr %3, align 8, !tbaa !27
  %5 = icmp eq ptr %4, null
  br i1 %5, label %.sink.split, label %6

6:                                                ; preds = %2
  %7 = getelementptr inbounds nuw i8, ptr %4, i64 17
  %8 = getelementptr inbounds nuw i8, ptr %1, i64 8
  %9 = load ptr, ptr %8, align 8, !tbaa !12
  %10 = load i32, ptr %9, align 8, !tbaa !25
  switch i32 %10, label %11 [
    i32 1034, label %14
    i32 1087, label %14
  ]

11:                                               ; preds = %6
  %12 = icmp eq i32 %10, 1035
  %13 = select i1 %12, i64 56, i64 57
  br label %14

14:                                               ; preds = %6, %6, %11
  %15 = phi i64 [ %13, %11 ], [ 32, %6 ], [ 32, %6 ]
  %16 = tail call noalias ptr @CRYPTO_memdup(ptr noundef nonnull %7, i64 noundef %15, ptr noundef nonnull @.str.8, i32 noundef 41) #8
  %17 = icmp eq ptr %16, null
  br i1 %17, label %31, label %18

18:                                               ; preds = %14
  %19 = load ptr, ptr %8, align 8, !tbaa !12
  %20 = load i32, ptr %19, align 8, !tbaa !25
  %21 = tail call ptr @OBJ_nid2obj(i32 noundef %20) #8
  %22 = load ptr, ptr %8, align 8, !tbaa !12
  %23 = load i32, ptr %22, align 8, !tbaa !25
  switch i32 %23, label %24 [
    i32 1034, label %27
    i32 1087, label %27
  ]

24:                                               ; preds = %18
  %25 = icmp eq i32 %23, 1035
  %26 = select i1 %25, i32 56, i32 57
  br label %27

27:                                               ; preds = %18, %18, %24
  %28 = phi i32 [ %26, %24 ], [ 32, %18 ], [ 32, %18 ]
  %29 = tail call i32 @X509_PUBKEY_set0_param(ptr noundef %0, ptr noundef %21, i32 noundef -1, ptr noundef null, ptr noundef nonnull %16, i32 noundef %28) #8
  %.not = icmp eq i32 %29, 0
  br i1 %.not, label %30, label %31

30:                                               ; preds = %27
  tail call void @CRYPTO_free(ptr noundef nonnull %16, ptr noundef nonnull @.str.8, i32 noundef 47) #8
  br label %.sink.split

.sink.split:                                      ; preds = %2, %30
  %.sink18 = phi i32 [ 48, %30 ], [ 37, %2 ]
  %.sink = phi i32 [ 524299, %30 ], [ 116, %2 ]
  tail call void @ERR_new() #8
  tail call void @ERR_set_debug(ptr noundef nonnull @.str.8, i32 noundef %.sink18, ptr noundef nonnull @__func__.ecx_pub_encode) #8
  tail call void (i32, i32, ptr, ...) @ERR_set_error(i32 noundef 16, i32 noundef %.sink, ptr noundef null) #8
  br label %31

31:                                               ; preds = %.sink.split, %27, %14
  %.0 = phi i32 [ 0, %14 ], [ 1, %27 ], [ 0, %.sink.split ]
  ret i32 %.0
}